target datalayout = "e-m:e-p270:32:32-p271:32:32-p272:64:64-i64:64-i128:128-f80:128-n8:16:32:64-S128"
target triple = "x86_64-pc-linux-gnu"

%struct.anon = type { ptr, i64, i32, i32, i32, i32 }

@.str = private unnamed_addr constant [30 x i8] c"Command %s missing argument!\0A\00", align 1
@.str.1 = private unnamed_addr constant [34 x i8] c"Command %s has trailing garbage!\0A\00", align 1
@.str.2 = private unnamed_addr constant [50 x i8] c"Command sent as old-style when not supported: %s\0A\00", align 1

; Function Attrs: nounwind uwtable
define dso_local i32 @parse_command(ptr noundef %0, ptr noundef %1, i32 noundef %2) #0 {
  %4 = alloca i32, align 4
  %5 = alloca ptr, align 8
  %6 = alloca ptr, align 8
  %7 = alloca i32, align 4
  %8 = alloca i64, align 8
  %9 = alloca i64, align 8
  %10 = alloca ptr, align 8
  %11 = alloca i32, align 4
  store ptr %0, ptr %5, align 8, !tbaa !4
  store ptr %1, ptr %6, align 8, !tbaa !9
  store i32 %2, ptr %7, align 4, !tbaa !11
  call void @llvm.lifetime.start.p0(i64 8, ptr %8) #9
  %12 = load ptr, ptr %6, align 8, !tbaa !9
  store ptr null, ptr %12, align 8, !tbaa !4
  store i64 0, ptr %8, align 8, !tbaa !13
  br label %13

13:                                               ; preds = %89, %3
  %14 = load i64, ptr %8, align 8, !tbaa !13
  %15 = icmp ult i64 %14, 17
  br i1 %15, label %16, label %92

16:                                               ; preds = %13
  call void @llvm.lifetime.start.p0(i64 8, ptr %9) #9
  %17 = load i64, ptr %8, align 8, !tbaa !13
  %18 = getelementptr inbounds nuw [17 x %struct.anon], ptr @commands, i64 0, i64 %17
  %19 = getelementptr inbounds nuw %struct.anon, ptr %18, i32 0, i32 1
  %20 = load i64, ptr %19, align 8, !tbaa !15
  store i64 %20, ptr %9, align 8, !tbaa !13
  %21 = load ptr, ptr %5, align 8, !tbaa !4
  %22 = load i64, ptr %8, align 8, !tbaa !13
  %23 = getelementptr inbounds nuw [17 x %struct.anon], ptr @commands, i64 0, i64 %22
  %24 = getelementptr inbounds nuw %struct.anon, ptr %23, i32 0, i32 0
  %25 = load ptr, ptr %24, align 16, !tbaa !17
  %26 = load i64, ptr %9, align 8, !tbaa !13
  %27 = call i32 @strncmp(ptr noundef %21, ptr noundef %25, i64 noundef %26) #10
  %28 = icmp ne i32 %27, 0
  br i1 %28, label %85, label %29

29:                                               ; preds = %16
  call void @llvm.lifetime.start.p0(i64 8, ptr %10) #9
  %30 = load ptr, ptr %5, align 8, !tbaa !4
  %31 = load i64, ptr %9, align 8, !tbaa !13
  %32 = getelementptr inbounds nuw i8, ptr %30, i64 %31
  store ptr %32, ptr %10, align 8, !tbaa !4
  %33 = load i64, ptr %8, align 8, !tbaa !13
  %34 = getelementptr inbounds nuw [17 x %struct.anon], ptr @commands, i64 0, i64 %33
  %35 = getelementptr inbounds nuw %struct.anon, ptr %34, i32 0, i32 3
  %36 = load i32, ptr %35, align 4, !tbaa !18
  %37 = icmp ne i32 %36, 0
  br i1 %37, label %38, label %52

38:                                               ; preds = %29
  %39 = load ptr, ptr %10, align 8, !tbaa !4
  %40 = load i8, ptr %39, align 1, !tbaa !19
  %41 = icmp ne i8 %40, 0
  br i1 %41, label %48, label %42

42:                                               ; preds = %38
  %43 = load i64, ptr %8, align 8, !tbaa !13
  %44 = getelementptr inbounds nuw [17 x %struct.anon], ptr @commands, i64 0, i64 %43
  %45 = getelementptr inbounds nuw %struct.anon, ptr %44, i32 0, i32 0
  %46 = load ptr, ptr %45, align 16, !tbaa !17
  %47 = call i32 (i32, ptr, ...) @logg(i32 noundef 3, ptr noundef @.str, ptr noundef %46)
  store i32 0, ptr %4, align 4
  store i32 1, ptr %11, align 4
  br label %84

48:                                               ; preds = %38
  %49 = load ptr, ptr %10, align 8, !tbaa !4
  %50 = getelementptr inbounds i8, ptr %49, i64 1
  %51 = load ptr, ptr %6, align 8, !tbaa !9
  store ptr %50, ptr %51, align 8, !tbaa !4
  br label %64

52:                                               ; preds = %29
  %53 = load ptr, ptr %10, align 8, !tbaa !4
  %54 = load i8, ptr %53, align 1, !tbaa !19
  %55 = icmp ne i8 %54, 0
  br i1 %55, label %56, label %62

56:                                               ; preds = %52
  %57 = load i64, ptr %8, align 8, !tbaa !13
  %58 = getelementptr inbounds nuw [17 x %struct.anon], ptr @commands, i64 0, i64 %57
  %59 = getelementptr inbounds nuw %struct.anon, ptr %58, i32 0, i32 0
  %60 = load ptr, ptr %59, align 16, !tbaa !17
  %61 = call i32 (i32, ptr, ...) @logg(i32 noundef 3, ptr noundef @.str.1, ptr noundef %60)
  store i32 0, ptr %4, align 4
  store i32 1, ptr %11, align 4
  br label %84

62:                                               ; preds = %52
  %63 = load ptr, ptr %6, align 8, !tbaa !9
  store ptr null, ptr %63, align 8, !tbaa !4
  br label %64

64:                                               ; preds = %62, %48
  %65 = load i32, ptr %7, align 4, !tbaa !11
  %66 = icmp ne i32 %65, 0
  br i1 %66, label %67, label %79

67:                                               ; preds = %64
  %68 = load i64, ptr %8, align 8, !tbaa !13
  %69 = getelementptr inbounds nuw [17 x %struct.anon], ptr @commands, i64 0, i64 %68
  %70 = getelementptr inbounds nuw %struct.anon, ptr %69, i32 0, i32 4
  %71 = load i32, ptr %70, align 8, !tbaa !20
  %72 = icmp ne i32 %71, 0
  br i1 %72, label %79, label %73

73:                                               ; preds = %67
  %74 = load i64, ptr %8, align 8, !tbaa !13
  %75 = getelementptr inbounds nuw [17 x %struct.anon], ptr @commands, i64 0, i64 %74
  %76 = getelementptr inbounds nuw %struct.anon, ptr %75, i32 0, i32 0
  %77 = load ptr, ptr %76, align 16, !tbaa !17
  %78 = call i32 (i32, ptr, ...) @logg(i32 noundef 3, ptr noundef @.str.2, ptr noundef %77)
  store i32 0, ptr %4, align 4
  store i32 1, ptr %11, align 4
  br label %84

79:                                               ; preds = %67, %64
  %80 = load i64, ptr %8, align 8, !tbaa !13
  %81 = getelementptr inbounds nuw [17 x %struct.anon], ptr @commands, i64 0, i64 %80
  %82 = getelementptr inbounds nuw %struct.anon, ptr %81, i32 0, i32 2
  %83 = load i32, ptr %82, align 16, !tbaa !21
  store i32 %83, ptr %4, align 4
  store i32 1, ptr %11, align 4
  br label %84

84:                                               ; preds = %79, %73, %56, %42
  call void @llvm.lifetime.end.p0(i64 8, ptr %10) #9
  br label %86

85:                                               ; preds = %16
  store i32 0, ptr %11, align 4
  br label %86

86:                                               ; preds = %85, %84
  call void @llvm.lifetime.end.p0(i64 8, ptr %9) #9
  %87 = load i32, ptr %11, align 4
  switch i32 %87, label %93 [
    i32 0, label %88
  ]

88:                                               ; preds = %86
  br label %89

89:                                               ; preds = %88
  %90 = load i64, ptr %8, align 8, !tbaa !13
  %91 = add i64 %90, 1
  store i64 %91, ptr %8, align 8, !tbaa !13
  br label %13

92:                                               ; preds = %13
  store i32 0, ptr %4, align 4
  store i32 1, ptr %11, align 4
  br label %93

93:                                               ; preds = %92, %86
  call void @llvm.lifetime.end.p0(i64 8, ptr %8) #9
  %94 = load i32, ptr %4, align 4
  ret i32 %94
}