; Function Attrs: nounwind uwtable
define dso_local i32 @parse_command(ptr noundef %0, ptr noundef writeonly captures(none) initializes((0, 8)) %1, i32 noundef %2) local_unnamed_addr #0 {
  store ptr null, ptr %1, align 8, !tbaa !4
  br label %6

4:                                                ; preds = %6
  %5 = add nuw nsw i64 %.02433, 1
  %exitcond.not = icmp eq i64 %5, 17
  br i1 %exitcond.not, label %.thread, label %6

6:                                                ; preds = %3, %4
  %.02433 = phi i64 [ 0, %3 ], [ %5, %4 ]
  %7 = getelementptr inbounds nuw [17 x %struct.anon], ptr @commands, i64 0, i64 %.02433
  %8 = getelementptr inbounds nuw i8, ptr %7, i64 8
  %9 = load i64, ptr %8, align 8, !tbaa !9
  %10 = load ptr, ptr %7, align 16, !tbaa !13
  %11 = tail call i32 @strncmp(ptr noundef %0, ptr noundef %10, i64 noundef %9) #13
  %.not.not = icmp eq i32 %11, 0
  br i1 %.not.not, label %12, label %4

12:                                               ; preds = %6
  %13 = getelementptr inbounds nuw i8, ptr %0, i64 %9
  %14 = getelementptr inbounds nuw i8, ptr %7, i64 20
  %15 = load i32, ptr %14, align 4, !tbaa !14
  %.not25 = icmp eq i32 %15, 0
  %16 = load i8, ptr %13, align 1, !tbaa !15
  %.not26 = icmp eq i8 %16, 0
  br i1 %.not25, label %22, label %17

17:                                               ; preds = %12
  br i1 %.not26, label %18, label %20

18:                                               ; preds = %17
  %19 = tail call i32 (i32, ptr, ...) @logg(i32 noundef 3, ptr noundef nonnull @.str, ptr noundef %10) #14
  br label %.thread

20:                                               ; preds = %17
  %21 = getelementptr inbounds nuw i8, ptr %13, i64 1
  br label %25

22:                                               ; preds = %12
  br i1 %.not26, label %25, label %23

23:                                               ; preds = %22
  %24 = tail call i32 (i32, ptr, ...) @logg(i32 noundef 3, ptr noundef nonnull @.str.1, ptr noundef %10) #14
  br label %.thread

25:                                               ; preds = %22, %20
  %storemerge = phi ptr [ %21, %20 ], [ null, %22 ]
  store ptr %storemerge, ptr %1, align 8, !tbaa !4
  %.not28 = icmp eq i32 %2, 0
  br i1 %.not28, label %31, label %26

26:                                               ; preds = %25
  %27 = getelementptr inbounds nuw i8, ptr %7, i64 24
  %28 = load i32, ptr %27, align 8, !tbaa !16
  %.not29 = icmp eq i32 %28, 0
  br i1 %.not29, label %29, label %31

29:                                               ; preds = %26
  %30 = tail call i32 (i32, ptr, ...) @logg(i32 noundef 3, ptr noundef nonnull @.str.2, ptr noundef %10) #14
  br label %.thread

31:                                               ; preds = %26, %25
  %32 = getelementptr inbounds nuw i8, ptr %7, i64 16
  %33 = load i32, ptr %32, align 16, !tbaa !17
  br label %.thread

.thread:                                          ; preds = %4, %31, %29, %23, %18
  %.3 = phi i32 [ 0, %23 ], [ 0, %18 ], [ 0, %29 ], [ %33, %31 ], [ 0, %4 ]
  ret i32 %.3
}